; ModuleID = '60/1358.c'
source_filename = "60/1358.c"
target datalayout = "e-m:e-p270:32:32-p271:32:32-p272:64:64-i64:64-f80:128-n8:16:32:64-S128"
target triple = "x86_64-pc-linux-gnu"

@.str = private unnamed_addr constant [3 x i8] c"%d\00", align 1
@.str.1 = private unnamed_addr constant [6 x i8] c"empty\00", align 1
@.str.2 = private unnamed_addr constant [7 x i8] c"%d %d\0A\00", align 1

; Function Attrs: noinline nounwind uwtable
define dso_local i32 @prime(i32 %0) #0 {
  %2 = alloca i32, align 4
  %3 = alloca i32, align 4
  %4 = alloca i32, align 4
  store i32 %0, i32* %3, align 4
  store i32 2, i32* %4, align 4
  br label %5

5:                                                ; preds = %16, %1
  %6 = load i32, i32* %4, align 4
  %7 = load i32, i32* %3, align 4
  %8 = icmp slt i32 %6, %7
  br i1 %8, label %9, label %19

9:                                                ; preds = %5
  %10 = load i32, i32* %3, align 4
  %11 = load i32, i32* %4, align 4
  %12 = srem i32 %10, %11
  %13 = icmp eq i32 %12, 0
  br i1 %13, label %14, label %15

14:                                               ; preds = %9
  store i32 0, i32* %2, align 4
  br label %20

15:                                               ; preds = %9
  br label %16

16:                                               ; preds = %15
  %17 = load i32, i32* %4, align 4
  %18 = add nsw i32 %17, 1
  store i32 %18, i32* %4, align 4
  br label %5

19:                                               ; preds = %5
  store i32 1, i32* %2, align 4
  br label %20

20:                                               ; preds = %19, %14
  %21 = load i32, i32* %2, align 4
  ret i32 %21
}

; Function Attrs: noinline nounwind uwtable
define dso_local i32 @main() #0 {
  %1 = alloca i32, align 4
  %2 = alloca i32, align 4
  %3 = alloca i32, align 4
  %4 = alloca i32, align 4
  %5 = alloca i32, align 4
  store i32 0, i32* %1, align 4
  %6 = call i32 (i8*, ...) @__isoc99_scanf(i8* getelementptr inbounds ([3 x i8], [3 x i8]* @.str, i64 0, i64 0), i32* %2)
  %7 = load i32, i32* %2, align 4
  %8 = icmp slt i32 %7, 5
  br i1 %8, label %9, label %11

9:                                                ; preds = %0
  %10 = call i32 (i8*, ...) @printf(i8* getelementptr inbounds ([6 x i8], [6 x i8]* @.str.1, i64 0, i64 0))
  br label %38

11:                                               ; preds = %0
  store i32 2, i32* %5, align 4
  br label %12

12:                                               ; preds = %34, %11
  %13 = load i32, i32* %5, align 4
  %14 = load i32, i32* %2, align 4
  %15 = sub nsw i32 %14, 2
  %16 = icmp sle i32 %13, %15
  br i1 %16, label %17, label %37

17:                                               ; preds = %12
  %18 = load i32, i32* %5, align 4
  %19 = call i32 @prime(i32 %18)
  store i32 %19, i32* %3, align 4
  %20 = load i32, i32* %5, align 4
  %21 = add nsw i32 %20, 2
  %22 = call i32 @prime(i32 %21)
  store i32 %22, i32* %4, align 4
  %23 = load i32, i32* %3, align 4
  %24 = icmp ne i32 %23, 0
  br i1 %24, label %25, label %33

25:                                               ; preds = %17
  %26 = load i32, i32* %4, align 4
  %27 = icmp ne i32 %26, 0
  br i1 %27, label %28, label %33

28:                                               ; preds = %25
  %29 = load i32, i32* %5, align 4
  %30 = load i32, i32* %5, align 4
  %31 = add nsw i32 %30, 2
  %32 = call i32 (i8*, ...) @printf(i8* getelementptr inbounds ([7 x i8], [7 x i8]* @.str.2, i64 0, i64 0), i32 %29, i32 %31)
  br label %33

33:                                               ; preds = %28, %25, %17
  br label %34

34:                                               ; preds = %33
  %35 = load i32, i32* %5, align 4
  %36 = add nsw i32 %35, 1
  store i32 %36, i32* %5, align 4
  br label %12

37:                                               ; preds = %12
  br label %38

38:                                               ; preds = %37, %9
  %39 = load i32, i32* %1, align 4
  ret i32 %39
}

declare dso_local i32 @__isoc99_scanf(i8*, ...) #1

declare dso_local i32 @printf(i8*, ...) #1


!llvm.module.flags = !{!0}
!llvm.ident = !{!1}

!0 = !{i32 1, !"wchar_size", i32 4}
!1 = !{!"clang version 10.0.0-4ubuntu1 "}
