; ModuleID = 'source-C-CXX/59/1358.c'
source_filename = "source-C-CXX/59/1358.c"
target datalayout = "e-m:e-p270:32:32-p271:32:32-p272:64:64-i64:64-f80:128-n8:16:32:64-S128"
target triple = "x86_64-pc-linux-gnu"

@.str = private unnamed_addr constant [3 x i8] c"%d\00", align 1
@.str.1 = private unnamed_addr constant [6 x i8] c"empty\00", align 1
@.str.2 = private unnamed_addr constant [7 x i8] c"%d %d\0A\00", align 1

; Function Attrs: nofree norecurse nosync nounwind readnone sspstrong uwtable
define dso_local i32 @prime(i32 %0) local_unnamed_addr #0 {
  %2 = icmp sgt i32 %0, 2
  br i1 %2, label %5, label %10

3:                                                ; preds = %5
  %4 = icmp eq i32 %9, %0
  br i1 %4, label %10, label %5, !llvm.loop !5

5:                                                ; preds = %1, %3
  %6 = phi i32 [ %9, %3 ], [ 2, %1 ]
  %7 = srem i32 %0, %6
  %8 = icmp eq i32 %7, 0
  %9 = add nuw nsw i32 %6, 1
  br i1 %8, label %10, label %3

10:                                               ; preds = %5, %3, %1
  %11 = phi i32 [ 1, %1 ], [ 1, %3 ], [ 0, %5 ]
  ret i32 %11
}

; Function Attrs: argmemonly mustprogress nofree nosync nounwind willreturn
declare void @llvm.lifetime.start.p0i8(i64 immarg, i8* nocapture) #1

; Function Attrs: argmemonly mustprogress nofree nosync nounwind willreturn
declare void @llvm.lifetime.end.p0i8(i64 immarg, i8* nocapture) #1

; Function Attrs: nofree nounwind sspstrong uwtable
define dso_local i32 @main() local_unnamed_addr #2 {
  %1 = alloca i32, align 4
  %2 = bitcast i32* %1 to i8*
  call void @llvm.lifetime.start.p0i8(i64 4, i8* nonnull %2) #4
  %3 = call i32 (i8*, ...) @__isoc99_scanf(i8* getelementptr inbounds ([3 x i8], [3 x i8]* @.str, i64 0, i64 0), i32* nonnull %1)
  %4 = load i32, i32* %1, align 4, !tbaa !7
  %5 = icmp slt i32 %4, 5
  br i1 %5, label %6, label %8

6:                                                ; preds = %0
  %7 = call i32 (i8*, ...) @printf(i8* nonnull dereferenceable(1) getelementptr inbounds ([6 x i8], [6 x i8]* @.str.1, i64 0, i64 0))
  br label %40

8:                                                ; preds = %0, %35
  %9 = phi i32 [ %36, %35 ], [ %4, %0 ]
  %10 = phi i32 [ %37, %35 ], [ 2, %0 ]
  %11 = icmp ugt i32 %10, 2
  br i1 %11, label %12, label %21

12:                                               ; preds = %8, %12
  %13 = phi i32 [ %16, %12 ], [ 2, %8 ]
  %14 = urem i32 %10, %13
  %15 = icmp eq i32 %14, 0
  %16 = add nuw nsw i32 %13, 1
  %17 = icmp eq i32 %16, %10
  %18 = select i1 %15, i1 true, i1 %17
  br i1 %18, label %19, label %12, !llvm.loop !5

19:                                               ; preds = %12
  %20 = xor i1 %15, true
  br label %21

21:                                               ; preds = %19, %8
  %22 = phi i1 [ true, %8 ], [ %20, %19 ]
  %23 = add nuw nsw i32 %10, 2
  br label %26

24:                                               ; preds = %26
  %25 = icmp eq i32 %30, %23
  br i1 %25, label %31, label %26, !llvm.loop !5

26:                                               ; preds = %24, %21
  %27 = phi i32 [ %30, %24 ], [ 2, %21 ]
  %28 = urem i32 %23, %27
  %29 = icmp eq i32 %28, 0
  %30 = add nuw nsw i32 %27, 1
  br i1 %29, label %35, label %24

31:                                               ; preds = %24
  br i1 %22, label %32, label %35

32:                                               ; preds = %31
  %33 = call i32 (i8*, ...) @printf(i8* nonnull dereferenceable(1) getelementptr inbounds ([7 x i8], [7 x i8]* @.str.2, i64 0, i64 0), i32 %10, i32 %23)
  %34 = load i32, i32* %1, align 4, !tbaa !7
  br label %35

35:                                               ; preds = %26, %31, %32
  %36 = phi i32 [ %9, %31 ], [ %34, %32 ], [ %9, %26 ]
  %37 = add nuw nsw i32 %10, 1
  %38 = add nsw i32 %36, -2
  %39 = icmp slt i32 %10, %38
  br i1 %39, label %8, label %40, !llvm.loop !11

40:                                               ; preds = %35, %6
  call void @llvm.lifetime.end.p0i8(i64 4, i8* nonnull %2) #4
  ret i32 0
}

; Function Attrs: nofree nounwind
declare noundef i32 @__isoc99_scanf(i8* nocapture noundef readonly, ...) local_unnamed_addr #3

; Function Attrs: nofree nounwind
declare noundef i32 @printf(i8* nocapture noundef readonly, ...) local_unnamed_addr #3


!llvm.module.flags = !{!0, !1, !2, !3}
!llvm.ident = !{!4}

!0 = !{i32 1, !"wchar_size", i32 4}
!1 = !{i32 7, !"PIC Level", i32 2}
!2 = !{i32 7, !"PIE Level", i32 2}
!3 = !{i32 7, !"uwtable", i32 1}
!4 = !{!"clang version 13.0.0"}
!5 = distinct !{!5, !6}
!6 = !{!"llvm.loop.mustprogress"}
!7 = !{!8, !8, i64 0}
!8 = !{!"int", !9, i64 0}
!9 = !{!"omnipotent char", !10, i64 0}
!10 = !{!"Simple C/C++ TBAA"}
!11 = distinct !{!11, !6}
